#include <math.h>
#include <stdio.h>
#include <stdlib.h>
#include <string.h>

int t,m,n,i,j,k,xx,x1,x2,x,y,s,n0;


void init(int a[],int b[])
{    freopen("tt.in","r",stdin);
     scanf("%d%d",&m,&n);
	 for (i=1;i<=m;i++) 
		 
			 scanf("%d",&a[i]);
	 for (i=1;i<=n;i++) 
		 
			 scanf("%d",&b[i]);
			 
	 }

void output(int a[],int k)
{
 int i;
	freopen("tt.out","w",stdout);
	for(i=1;i<=k;i++) if (i==1) printf("%d",a[i]); else printf(" %d",a[i]);
}
 void proce(int n,int b)
{
	int i;
	if (n==1) s++;
	else 
	for (i=b;i<=n0;i++)
		if (!(n%i)) proce(n/i,i);
	
}
	
int main()
{
//freopen("tt.in","r",stdin);
//freopen("tt.out","w",stdout);
	scanf("%d",&n);
	
	for (i=1; i<=n;i++) 
		{
			scanf("%d",&x);
			s=0;
			n0=x;
			proce(x,2);
			printf("%d\n",s);
	     }
	
	 
return 0;
}